target datalayout = "e-m:e-p270:32:32-p271:32:32-p272:64:64-i64:64-i128:128-f80:128-n8:16:32:64-S128"
target triple = "x86_64-pc-linux-gnu"

%struct.psset_s = type { [64 x %struct.hpdata_age_heap_t], [1 x i64], %struct.psset_stats_s, %struct.hpdata_empty_list_t, [128 x %struct.hpdata_purge_list_t], [2 x i64], %struct.hpdata_hugify_list_t }
%struct.hpdata_age_heap_t = type { %struct.ph_s }
%struct.ph_s = type { ptr, i64 }
%struct.psset_stats_s = type { %struct.psset_bin_stats_s, [2 x %struct.psset_bin_stats_s], [64 x [2 x %struct.psset_bin_stats_s]], [2 x %struct.psset_bin_stats_s], [2 x %struct.psset_bin_stats_s] }
%struct.psset_bin_stats_s = type { i64, i64, i64 }
%struct.hpdata_empty_list_t = type { %struct.anon }
%struct.anon = type { ptr }
%struct.hpdata_purge_list_t = type { %struct.anon.0 }
%struct.anon.0 = type { ptr }
%struct.hpdata_hugify_list_t = type { %struct.anon.1 }
%struct.anon.1 = type { ptr }

; Function Attrs: inlinehint nounwind uwtable
define internal i32 @fls_u64(i64 noundef %0) #3 {
  %2 = alloca i64, align 8
  store i64 %0, ptr %2, align 8, !tbaa !16
  %3 = load i64, ptr %2, align 8, !tbaa !16
  %4 = call i32 @fls_lu(i64 noundef %3)
  ret i32 %4
}

; Function Attrs: inlinehint nounwind uwtable
define internal i32 @fls_lu(i64 noundef %0) #3 {
  %2 = alloca i64, align 8
  store i64 %0, ptr %2, align 8, !tbaa !16
  %3 = load i64, ptr %2, align 8, !tbaa !16
  %4 = icmp ne i64 %3, 0
  call void @llvm.assume(i1 %4)
  %5 = load i64, ptr %2, align 8, !tbaa !16
  %6 = call i64 @llvm.ctlz.i64(i64 %5, i1 true)
  %7 = trunc i64 %6 to i32
  %8 = sext i32 %7 to i64
  %9 = xor i64 63, %8
  %10 = trunc i64 %9 to i32
  ret i32 %10
}

; Function Attrs: inlinehint nounwind uwtable
define internal i32 @ffs_lu(i64 noundef %0) #3 {
  %2 = alloca i64, align 8
  store i64 %0, ptr %2, align 8, !tbaa !16
  %3 = load i64, ptr %2, align 8, !tbaa !16
  %4 = icmp ne i64 %3, 0
  call void @llvm.assume(i1 %4)
  %5 = load i64, ptr %2, align 8, !tbaa !16
  %6 = call i64 @llvm.cttz.i64(i64 %5, i1 true)
  %7 = add i64 %6, 1
  %8 = icmp eq i64 %5, 0
  %9 = select i1 %8, i64 0, i64 %7
  %10 = trunc i64 %9 to i32
  %11 = sub nsw i32 %10, 1
  ret i32 %11
}

; Function Attrs: inlinehint nounwind uwtable
define internal i32 @lg_floor(i64 noundef %0) #3 {
  %2 = alloca i64, align 8
  store i64 %0, ptr %2, align 8, !tbaa !16
  %3 = load i64, ptr %2, align 8, !tbaa !16
  %4 = icmp ne i64 %3, 0
  call void @llvm.assume(i1 %4)
  %5 = load i64, ptr %2, align 8, !tbaa !16
  %6 = call i32 @fls_u64(i64 noundef %5)
  ret i32 %6
}

; Function Attrs: alwaysinline nounwind uwtable
define internal i64 @fb_find_impl(ptr noundef %0, i64 noundef %1, i64 noundef %2, i1 noundef zeroext %3, i1 noundef zeroext %4) #5 {
  %6 = alloca i64, align 8
  %7 = alloca ptr, align 8
  %8 = alloca i64, align 8
  %9 = alloca i64, align 8
  %10 = alloca i8, align 1
  %11 = alloca i8, align 1
  %12 = alloca i64, align 8
  %13 = alloca i64, align 8
  %14 = alloca i64, align 8
  %15 = alloca i64, align 8
  %16 = alloca i64, align 8
  %17 = alloca i64, align 8
  %18 = alloca i32, align 4
  %19 = alloca i64, align 8
  %20 = alloca i64, align 8
  store ptr %0, ptr %7, align 8, !tbaa !14
  store i64 %1, ptr %8, align 8, !tbaa !16
  store i64 %2, ptr %9, align 8, !tbaa !16
  %21 = zext i1 %3 to i8
  store i8 %21, ptr %10, align 1, !tbaa !34
  %22 = zext i1 %4 to i8
  store i8 %22, ptr %11, align 1, !tbaa !34
  br label %23

23:                                               ; preds = %5
  br label %24

24:                                               ; preds = %23
  call void @llvm.lifetime.start.p0(i64 8, ptr %12) #9
  %25 = load i64, ptr %8, align 8, !tbaa !16
  %26 = udiv i64 %25, 64
  %27 = load i64, ptr %8, align 8, !tbaa !16
  %28 = urem i64 %27, 64
  %29 = icmp eq i64 %28, 0
  %30 = select i1 %29, i32 0, i32 1
  %31 = sext i32 %30 to i64
  %32 = add i64 %26, %31
  store i64 %32, ptr %12, align 8, !tbaa !16
  call void @llvm.lifetime.start.p0(i64 8, ptr %13) #9
  %33 = load i64, ptr %9, align 8, !tbaa !16
  %34 = udiv i64 %33, 64
  store i64 %34, ptr %13, align 8, !tbaa !16
  call void @llvm.lifetime.start.p0(i64 8, ptr %14) #9
  %35 = load i64, ptr %9, align 8, !tbaa !16
  %36 = urem i64 %35, 64
  store i64 %36, ptr %14, align 8, !tbaa !16
  call void @llvm.lifetime.start.p0(i64 8, ptr %15) #9
  %37 = load i8, ptr %10, align 1, !tbaa !34, !range !36, !noundef !37
  %38 = trunc i8 %37 to i1
  %39 = select i1 %38, i64 0, i64 -1
  store i64 %39, ptr %15, align 8, !tbaa !16
  call void @llvm.lifetime.start.p0(i64 8, ptr %16) #9
  %40 = load ptr, ptr %7, align 8, !tbaa !14
  %41 = load i64, ptr %13, align 8, !tbaa !16
  %42 = getelementptr inbounds i64, ptr %40, i64 %41
  %43 = load i64, ptr %42, align 8, !tbaa !16
  store i64 %43, ptr %16, align 8, !tbaa !16
  %44 = load i64, ptr %15, align 8, !tbaa !16
  %45 = load i64, ptr %16, align 8, !tbaa !16
  %46 = xor i64 %45, %44
  store i64 %46, ptr %16, align 8, !tbaa !16
  %47 = load i8, ptr %11, align 1, !tbaa !34, !range !36, !noundef !37
  %48 = trunc i8 %47 to i1
  br i1 %48, label %49, label %56

49:                                               ; preds = %24
  %50 = load i64, ptr %14, align 8, !tbaa !16
  %51 = shl i64 1, %50
  %52 = sub i64 %51, 1
  %53 = xor i64 %52, -1
  %54 = load i64, ptr %16, align 8, !tbaa !16
  %55 = and i64 %54, %53
  store i64 %55, ptr %16, align 8, !tbaa !16
  br label %62

56:                                               ; preds = %24
  %57 = load i64, ptr %14, align 8, !tbaa !16
  %58 = shl i64 2, %57
  %59 = sub i64 %58, 1
  %60 = load i64, ptr %16, align 8, !tbaa !16
  %61 = and i64 %60, %59
  store i64 %61, ptr %16, align 8, !tbaa !16
  br label %62

62:                                               ; preds = %56, %49
  call void @llvm.lifetime.start.p0(i64 8, ptr %17) #9
  %63 = load i8, ptr %11, align 1, !tbaa !34, !range !36, !noundef !37
  %64 = trunc i8 %63 to i1
  br i1 %64, label %65, label %67

65:                                               ; preds = %62
  %66 = load i64, ptr %12, align 8, !tbaa !16
  br label %68

67:                                               ; preds = %62
  br label %68

68:                                               ; preds = %67, %65
  %69 = phi i64 [ %66, %65 ], [ -1, %67 ]
  store i64 %69, ptr %17, align 8, !tbaa !16
  br label %70

70:                                               ; preds = %91, %68
  %71 = load i64, ptr %16, align 8, !tbaa !16
  %72 = icmp eq i64 %71, 0
  br i1 %72, label %73, label %99

73:                                               ; preds = %70
  %74 = load i8, ptr %11, align 1, !tbaa !34, !range !36, !noundef !37
  %75 = trunc i8 %74 to i1
  %76 = select i1 %75, i32 1, i32 -1
  %77 = sext i32 %76 to i64
  %78 = load i64, ptr %13, align 8, !tbaa !16
  %79 = add nsw i64 %78, %77
  store i64 %79, ptr %13, align 8, !tbaa !16
  %80 = load i64, ptr %13, align 8, !tbaa !16
  %81 = load i64, ptr %17, align 8, !tbaa !16
  %82 = icmp eq i64 %80, %81
  br i1 %82, label %83, label %91

83:                                               ; preds = %73
  %84 = load i8, ptr %11, align 1, !tbaa !34, !range !36, !noundef !37
  %85 = trunc i8 %84 to i1
  br i1 %85, label %86, label %88

86:                                               ; preds = %83
  %87 = load i64, ptr %8, align 8, !tbaa !16
  br label %89

88:                                               ; preds = %83
  br label %89

89:                                               ; preds = %88, %86
  %90 = phi i64 [ %87, %86 ], [ -1, %88 ]
  store i64 %90, ptr %6, align 8
  store i32 1, ptr %18, align 4
  br label %132

91:                                               ; preds = %73
  %92 = load ptr, ptr %7, align 8, !tbaa !14
  %93 = load i64, ptr %13, align 8, !tbaa !16
  %94 = getelementptr inbounds i64, ptr %92, i64 %93
  %95 = load i64, ptr %94, align 8, !tbaa !16
  store i64 %95, ptr %16, align 8, !tbaa !16
  %96 = load i64, ptr %15, align 8, !tbaa !16
  %97 = load i64, ptr %16, align 8, !tbaa !16
  %98 = xor i64 %97, %96
  store i64 %98, ptr %16, align 8, !tbaa !16
  br label %70, !llvm.loop !61

99:                                               ; preds = %70
  br label %100

100:                                              ; preds = %99
  br label %101

101:                                              ; preds = %100
  br label %102

102:                                              ; preds = %101
  call void @llvm.lifetime.start.p0(i64 8, ptr %19) #9
  %103 = load i8, ptr %11, align 1, !tbaa !34, !range !36, !noundef !37
  %104 = trunc i8 %103 to i1
  br i1 %104, label %105, label %108

105:                                              ; preds = %102
  %106 = load i64, ptr %16, align 8, !tbaa !16
  %107 = call i32 @ffs_lu(i64 noundef %106)
  br label %111

108:                                              ; preds = %102
  %109 = load i64, ptr %16, align 8, !tbaa !16
  %110 = call i32 @fls_lu(i64 noundef %109)
  br label %111

111:                                              ; preds = %108, %105
  %112 = phi i32 [ %107, %105 ], [ %110, %108 ]
  %113 = zext i32 %112 to i64
  store i64 %113, ptr %19, align 8, !tbaa !16
  call void @llvm.lifetime.start.p0(i64 8, ptr %20) #9
  %114 = load i64, ptr %13, align 8, !tbaa !16
  %115 = mul i64 %114, 64
  %116 = load i64, ptr %19, align 8, !tbaa !16
  %117 = add i64 %115, %116
  store i64 %117, ptr %20, align 8, !tbaa !16
  %118 = load i8, ptr %11, align 1, !tbaa !34, !range !36, !noundef !37
  %119 = trunc i8 %118 to i1
  br i1 %119, label %120, label %129

120:                                              ; preds = %111
  %121 = load i8, ptr %10, align 1, !tbaa !34, !range !36, !noundef !37
  %122 = trunc i8 %121 to i1
  br i1 %122, label %129, label %123

123:                                              ; preds = %120
  %124 = load i64, ptr %20, align 8, !tbaa !16
  %125 = load i64, ptr %8, align 8, !tbaa !16
  %126 = icmp ugt i64 %124, %125
  br i1 %126, label %127, label %129

127:                                              ; preds = %123
  %128 = load i64, ptr %8, align 8, !tbaa !16
  store i64 %128, ptr %6, align 8
  store i32 1, ptr %18, align 4
  br label %131

129:                                              ; preds = %123, %120, %111
  %130 = load i64, ptr %20, align 8, !tbaa !16
  store i64 %130, ptr %6, align 8
  store i32 1, ptr %18, align 4
  br label %131

131:                                              ; preds = %129, %127
  call void @llvm.lifetime.end.p0(i64 8, ptr %20) #9
  call void @llvm.lifetime.end.p0(i64 8, ptr %19) #9
  br label %132

132:                                              ; preds = %131, %89
  call void @llvm.lifetime.end.p0(i64 8, ptr %17) #9
  call void @llvm.lifetime.end.p0(i64 8, ptr %16) #9
  call void @llvm.lifetime.end.p0(i64 8, ptr %15) #9
  call void @llvm.lifetime.end.p0(i64 8, ptr %14) #9
  call void @llvm.lifetime.end.p0(i64 8, ptr %13) #9
  call void @llvm.lifetime.end.p0(i64 8, ptr %12) #9
  %133 = load i64, ptr %6, align 8
  ret i64 %133
}

; Function Attrs: inlinehint nounwind uwtable
define internal i32 @lg_ceil(i64 noundef %0) #3 {
  %2 = alloca i64, align 8
  store i64 %0, ptr %2, align 8, !tbaa !16
  %3 = load i64, ptr %2, align 8, !tbaa !16
  %4 = call i32 @lg_floor(i64 noundef %3)
  %5 = load i64, ptr %2, align 8, !tbaa !16
  %6 = load i64, ptr %2, align 8, !tbaa !16
  %7 = sub i64 %6, 1
  %8 = and i64 %5, %7
  %9 = icmp eq i64 %8, 0
  %10 = select i1 %9, i32 0, i32 1
  %11 = add i32 %4, %10
  ret i32 %11
}

; Function Attrs: inlinehint nounwind uwtable
define internal void @hpdata_assert_consistent(ptr noundef %0) #3 {
  %2 = alloca ptr, align 8
  store ptr %0, ptr %2, align 8, !tbaa !33
  br label %3

3:                                                ; preds = %1
  br label %4

4:                                                ; preds = %3
  ret void
}

; Function Attrs: inlinehint nounwind uwtable
define internal ptr @hpdata_empty_list_first(ptr noundef %0) #3 {
  %2 = alloca ptr, align 8
  store ptr %0, ptr %2, align 8, !tbaa !18
  %3 = load ptr, ptr %2, align 8, !tbaa !18
  %4 = getelementptr inbounds nuw %struct.hpdata_empty_list_t, ptr %3, i32 0, i32 0
  %5 = getelementptr inbounds nuw %struct.anon, ptr %4, i32 0, i32 0
  %6 = load ptr, ptr %5, align 8, !tbaa !19
  ret ptr %6
}

; Function Attrs: inlinehint nounwind uwtable
define internal i64 @fb_ffs(ptr noundef %0, i64 noundef %1, i64 noundef %2) #3 {
  %4 = alloca ptr, align 8
  %5 = alloca i64, align 8
  %6 = alloca i64, align 8
  store ptr %0, ptr %4, align 8, !tbaa !14
  store i64 %1, ptr %5, align 8, !tbaa !16
  store i64 %2, ptr %6, align 8, !tbaa !16
  %7 = load ptr, ptr %4, align 8, !tbaa !14
  %8 = load i64, ptr %5, align 8, !tbaa !16
  %9 = load i64, ptr %6, align 8, !tbaa !16
  %10 = call i64 @fb_find_impl(ptr noundef %7, i64 noundef %8, i64 noundef %9, i1 noundef zeroext true, i1 noundef zeroext true)
  ret i64 %10
}

; Function Attrs: alwaysinline nounwind uwtable
define internal i32 @sz_psz2ind(i64 noundef %0) #5 {
  %2 = alloca i32, align 4
  %3 = alloca i64, align 8
  %4 = alloca i32, align 4
  %5 = alloca i32, align 4
  %6 = alloca i32, align 4
  %7 = alloca i32, align 4
  %8 = alloca i32, align 4
  %9 = alloca i32, align 4
  store i64 %0, ptr %3, align 8, !tbaa !16
  br label %10

10:                                               ; preds = %1
  br label %11

11:                                               ; preds = %10
  %12 = load i64, ptr %3, align 8, !tbaa !16
  %13 = icmp ugt i64 %12, 8070450532247928832
  %14 = xor i1 %13, true
  %15 = xor i1 %14, true
  %16 = zext i1 %15 to i32
  %17 = sext i32 %16 to i64
  %18 = call i64 @llvm.expect.i64(i64 %17, i64 0)
  %19 = icmp ne i64 %18, 0
  br i1 %19, label %20, label %21

20:                                               ; preds = %11
  store i32 199, ptr %2, align 4
  br label %54

21:                                               ; preds = %11
  call void @llvm.lifetime.start.p0(i64 4, ptr %4) #9
  %22 = load i64, ptr %3, align 8, !tbaa !16
  %23 = call i32 @lg_ceil(i64 noundef %22)
  store i32 %23, ptr %4, align 4, !tbaa !9
  call void @llvm.lifetime.start.p0(i64 4, ptr %5) #9
  %24 = load i32, ptr %4, align 4, !tbaa !9
  %25 = icmp ult i32 %24, 14
  br i1 %25, label %26, label %27

26:                                               ; preds = %21
  br label %30

27:                                               ; preds = %21
  %28 = load i32, ptr %4, align 4, !tbaa !9
  %29 = sub i32 %28, 14
  br label %30

30:                                               ; preds = %27, %26
  %31 = phi i32 [ 0, %26 ], [ %29, %27 ]
  store i32 %31, ptr %5, align 4, !tbaa !9
  call void @llvm.lifetime.start.p0(i64 4, ptr %6) #9
  %32 = load i32, ptr %5, align 4, !tbaa !9
  %33 = icmp eq i32 %32, 0
  br i1 %33, label %34, label %35

34:                                               ; preds = %30
  br label %39

35:                                               ; preds = %30
  %36 = load i32, ptr %5, align 4, !tbaa !9
  %37 = sub i32 %36, 1
  %38 = add i32 12, %37
  br label %39

39:                                               ; preds = %35, %34
  %40 = phi i32 [ 12, %34 ], [ %38, %35 ]
  store i32 %40, ptr %6, align 4, !tbaa !9
  call void @llvm.lifetime.start.p0(i64 4, ptr %7) #9
  %41 = load i64, ptr %3, align 8, !tbaa !16
  %42 = sub i64 %41, 1
  %43 = load i32, ptr %6, align 4, !tbaa !9
  %44 = zext i32 %43 to i64
  %45 = lshr i64 %42, %44
  %46 = and i64 %45, 3
  %47 = trunc i64 %46 to i32
  store i32 %47, ptr %7, align 4, !tbaa !9
  call void @llvm.lifetime.start.p0(i64 4, ptr %8) #9
  %48 = load i32, ptr %5, align 4, !tbaa !9
  %49 = shl i32 %48, 2
  store i32 %49, ptr %8, align 4, !tbaa !9
  call void @llvm.lifetime.start.p0(i64 4, ptr %9) #9
  %50 = load i32, ptr %8, align 4, !tbaa !9
  %51 = load i32, ptr %7, align 4, !tbaa !9
  %52 = add i32 %50, %51
  store i32 %52, ptr %9, align 4, !tbaa !9
  %53 = load i32, ptr %9, align 4, !tbaa !9
  store i32 %53, ptr %2, align 4
  call void @llvm.lifetime.end.p0(i64 4, ptr %9) #9
  call void @llvm.lifetime.end.p0(i64 4, ptr %8) #9
  call void @llvm.lifetime.end.p0(i64 4, ptr %7) #9
  call void @llvm.lifetime.end.p0(i64 4, ptr %6) #9
  call void @llvm.lifetime.end.p0(i64 4, ptr %5) #9
  call void @llvm.lifetime.end.p0(i64 4, ptr %4) #9
  br label %54

54:                                               ; preds = %39, %20
  %55 = load i32, ptr %2, align 4
  ret i32 %55
}

; Function Attrs: nounwind uwtable
define hidden ptr @je_psset_pick_alloc(ptr noundef %0, i64 noundef %1) #0 {
  %3 = alloca ptr, align 8
  %4 = alloca ptr, align 8
  %5 = alloca i64, align 8
  %6 = alloca i32, align 4
  %7 = alloca i32, align 4
  %8 = alloca i32, align 4
  %9 = alloca ptr, align 8
  store ptr %0, ptr %4, align 8, !tbaa !4
  store i64 %1, ptr %5, align 8, !tbaa !16
  br label %10

10:                                               ; preds = %2
  br label %11

11:                                               ; preds = %10
  br label %12

12:                                               ; preds = %11
  br label %13

13:                                               ; preds = %12
  call void @llvm.lifetime.start.p0(i64 4, ptr %6) #9
  %14 = load i64, ptr %5, align 8, !tbaa !16
  %15 = call i64 @je_sz_psz_quantize_ceil(i64 noundef %14)
  %16 = call i32 @sz_psz2ind(i64 noundef %15)
  store i32 %16, ptr %6, align 4, !tbaa !9
  call void @llvm.lifetime.start.p0(i64 4, ptr %7) #9
  %17 = load ptr, ptr %4, align 8, !tbaa !4
  %18 = getelementptr inbounds nuw %struct.psset_s, ptr %17, i32 0, i32 1
  %19 = getelementptr inbounds [1 x i64], ptr %18, i64 0, i64 0
  %20 = load i32, ptr %6, align 4, !tbaa !9
  %21 = zext i32 %20 to i64
  %22 = call i64 @fb_ffs(ptr noundef %19, i64 noundef 64, i64 noundef %21)
  %23 = trunc i64 %22 to i32
  store i32 %23, ptr %7, align 4, !tbaa !9
  %24 = load i32, ptr %7, align 4, !tbaa !9
  %25 = icmp eq i32 %24, 64
  br i1 %25, label %26, label %30

26:                                               ; preds = %13
  %27 = load ptr, ptr %4, align 8, !tbaa !4
  %28 = getelementptr inbounds nuw %struct.psset_s, ptr %27, i32 0, i32 3
  %29 = call ptr @hpdata_empty_list_first(ptr noundef %28)
  store ptr %29, ptr %3, align 8
  store i32 1, ptr %8, align 4
  br label %44

30:                                               ; preds = %13
  call void @llvm.lifetime.start.p0(i64 8, ptr %9) #9
  %31 = load ptr, ptr %4, align 8, !tbaa !4
  %32 = getelementptr inbounds nuw %struct.psset_s, ptr %31, i32 0, i32 0
  %33 = load i32, ptr %7, align 4, !tbaa !9
  %34 = zext i32 %33 to i64
  %35 = getelementptr inbounds nuw [64 x %struct.hpdata_age_heap_t], ptr %32, i64 0, i64 %34
  %36 = call ptr @je_hpdata_age_heap_first(ptr noundef %35)
  store ptr %36, ptr %9, align 8, !tbaa !33
  %37 = load ptr, ptr %9, align 8, !tbaa !33
  %38 = icmp eq ptr %37, null
  br i1 %38, label %39, label %40

39:                                               ; preds = %30
  store ptr null, ptr %3, align 8
  store i32 1, ptr %8, align 4
  br label %43

40:                                               ; preds = %30
  %41 = load ptr, ptr %9, align 8, !tbaa !33
  call void @hpdata_assert_consistent(ptr noundef %41)
  %42 = load ptr, ptr %9, align 8, !tbaa !33
  store ptr %42, ptr %3, align 8
  store i32 1, ptr %8, align 4
  br label %43

43:                                               ; preds = %40, %39
  call void @llvm.lifetime.end.p0(i64 8, ptr %9) #9
  br label %44

44:                                               ; preds = %43, %26
  call void @llvm.lifetime.end.p0(i64 4, ptr %7) #9
  call void @llvm.lifetime.end.p0(i64 4, ptr %6) #9
  %45 = load ptr, ptr %3, align 8
  ret ptr %45
}